target datalayout = "e-m:e-p270:32:32-p271:32:32-p272:64:64-i64:64-i128:128-f80:128-n8:16:32:64-S128"
target triple = "x86_64-pc-linux-gnu"

@.str = private unnamed_addr constant [3 x i8] c"0x\00", align 1

; Function Attrs: nounwind uwtable
define i32 @phpdbg_is_addr(ptr noundef %0) #0 {
  %2 = alloca ptr, align 8
  store ptr %0, ptr %2, align 8
  %3 = load ptr, ptr %2, align 8
  %4 = getelementptr inbounds i8, ptr %3, i64 0
  %5 = load i8, ptr %4, align 1
  %6 = sext i8 %5 to i32
  %7 = icmp ne i32 %6, 0
  br i1 %7, label %8, label %18

8:                                                ; preds = %1
  %9 = load ptr, ptr %2, align 8
  %10 = getelementptr inbounds i8, ptr %9, i64 1
  %11 = load i8, ptr %10, align 1
  %12 = sext i8 %11 to i32
  %13 = icmp ne i32 %12, 0
  br i1 %13, label %14, label %18

14:                                               ; preds = %8
  %15 = load ptr, ptr %2, align 8
  %16 = call i32 @memcmp(ptr noundef %15, ptr noundef @.str, i64 noundef 2) #12
  %17 = icmp eq i32 %16, 0
  br label %18

18:                                               ; preds = %14, %8, %1
  %19 = phi i1 [ false, %8 ], [ false, %1 ], [ %17, %14 ]
  %20 = zext i1 %19 to i32
  ret i32 %20
}