; Function Attrs: mustprogress nofree nounwind willreturn memory(argmem: read) uwtable
define i32 @phpdbg_is_addr(ptr nocapture noundef readonly %0) local_unnamed_addr #2 {
  %2 = load i8, ptr %0, align 1
  %.not = icmp eq i8 %2, 0
  br i1 %.not, label %9, label %3

3:                                                ; preds = %1
  %4 = getelementptr inbounds i8, ptr %0, i64 1
  %5 = load i8, ptr %4, align 1
  %.not3 = icmp eq i8 %5, 0
  br i1 %.not3, label %9, label %6

6:                                                ; preds = %3
  %bcmp = tail call i32 @bcmp(ptr noundef nonnull dereferenceable(2) %0, ptr noundef nonnull dereferenceable(2) @.str, i64 2)
  %7 = icmp eq i32 %bcmp, 0
  %8 = zext i1 %7 to i32
  br label %9

9:                                                ; preds = %6, %3, %1
  %10 = phi i32 [ 0, %3 ], [ 0, %1 ], [ %8, %6 ]
  ret i32 %10
}